target datalayout = "e-m:e-p270:32:32-p271:32:32-p272:64:64-i64:64-i128:128-f80:128-n8:16:32:64-S128"
target triple = "x86_64-pc-linux-gnu"

%struct.H5O_ainfo_t = type { i8, i8, i32, i64, i64, i64, i64 }

@H5O_init_g = external global i8, align 1
@H5_libterm_g = external global i8, align 1
@.str.11 = private unnamed_addr constant [13 x i8] c"%*s%-*s %lu\0A\00", align 1
@.str.12 = private unnamed_addr constant [1 x i8] zeroinitializer, align 1
@.str.13 = private unnamed_addr constant [22 x i8] c"Number of attributes:\00", align 1
@.str.14 = private unnamed_addr constant [12 x i8] c"%*s%-*s %s\0A\00", align 1
@.str.15 = private unnamed_addr constant [36 x i8] c"Track creation order of attributes:\00", align 1
@.str.16 = private unnamed_addr constant [5 x i8] c"TRUE\00", align 1
@.str.17 = private unnamed_addr constant [6 x i8] c"FALSE\00", align 1
@.str.18 = private unnamed_addr constant [36 x i8] c"Index creation order of attributes:\00", align 1
@.str.19 = private unnamed_addr constant [12 x i8] c"%*s%-*s %u\0A\00", align 1
@.str.20 = private unnamed_addr constant [27 x i8] c"Max. creation index value:\00", align 1
@.str.21 = private unnamed_addr constant [48 x i8] c"'Dense' attribute storage fractal heap address:\00", align 1
@.str.22 = private unnamed_addr constant [56 x i8] c"'Dense' attribute storage name index v2 B-tree address:\00", align 1
@.str.23 = private unnamed_addr constant [66 x i8] c"'Dense' attribute storage creation order index v2 B-tree address:\00", align 1

; Function Attrs: nounwind uwtable
define internal i32 @H5O__ainfo_debug(ptr noundef %0, ptr noundef %1, ptr noundef %2, i32 noundef %3, i32 noundef %4) #0 {
  %6 = alloca ptr, align 8
  %7 = alloca ptr, align 8
  %8 = alloca ptr, align 8
  %9 = alloca i32, align 4
  %10 = alloca i32, align 4
  %11 = alloca ptr, align 8
  store ptr %0, ptr %6, align 8, !tbaa !3
  store ptr %1, ptr %7, align 8, !tbaa !20
  store ptr %2, ptr %8, align 8, !tbaa !45
  store i32 %3, ptr %9, align 4, !tbaa !10
  store i32 %4, ptr %10, align 4, !tbaa !10
  call void @llvm.lifetime.start.p0(i64 8, ptr %11) #6
  %12 = load ptr, ptr %7, align 8, !tbaa !20
  store ptr %12, ptr %11, align 8, !tbaa !18
  %13 = load i8, ptr @H5O_init_g, align 1, !tbaa !21, !range !23, !noundef !24
  %14 = trunc i8 %13 to i1
  br i1 %14, label %19, label %15

15:                                               ; preds = %5
  %16 = load i8, ptr @H5_libterm_g, align 1, !tbaa !21, !range !23, !noundef !24
  %17 = trunc i8 %16 to i1
  %18 = xor i1 %17, true
  br label %19

19:                                               ; preds = %15, %5
  %20 = phi i1 [ true, %5 ], [ %18, %15 ]
  %21 = xor i1 %20, true
  %22 = xor i1 %21, true
  %23 = zext i1 %22 to i32
  %24 = sext i32 %23 to i64
  %25 = call i64 @llvm.expect.i64(i64 %24, i64 1)
  %26 = icmp ne i64 %25, 0
  br i1 %26, label %27, label %81

27:                                               ; preds = %19
  %28 = load ptr, ptr %8, align 8, !tbaa !45
  %29 = load i32, ptr %9, align 4, !tbaa !10
  %30 = load i32, ptr %10, align 4, !tbaa !10
  %31 = load ptr, ptr %11, align 8, !tbaa !18
  %32 = getelementptr inbounds nuw %struct.H5O_ainfo_t, ptr %31, i32 0, i32 4
  %33 = load i64, ptr %32, align 8, !tbaa !29
  %34 = call i32 (ptr, ptr, ...) @fprintf(ptr noundef %28, ptr noundef @.str.11, i32 noundef %29, ptr noundef @.str.12, i32 noundef %30, ptr noundef @.str.13, i64 noundef %33) #6
  %35 = load ptr, ptr %8, align 8, !tbaa !45
  %36 = load i32, ptr %9, align 4, !tbaa !10
  %37 = load i32, ptr %10, align 4, !tbaa !10
  %38 = load ptr, ptr %11, align 8, !tbaa !18
  %39 = getelementptr inbounds nuw %struct.H5O_ainfo_t, ptr %38, i32 0, i32 0
  %40 = load i8, ptr %39, align 8, !tbaa !26, !range !23, !noundef !24
  %41 = trunc i8 %40 to i1
  %42 = select i1 %41, ptr @.str.16, ptr @.str.17
  %43 = call i32 (ptr, ptr, ...) @fprintf(ptr noundef %35, ptr noundef @.str.14, i32 noundef %36, ptr noundef @.str.12, i32 noundef %37, ptr noundef @.str.15, ptr noundef %42) #6
  %44 = load ptr, ptr %8, align 8, !tbaa !45
  %45 = load i32, ptr %9, align 4, !tbaa !10
  %46 = load i32, ptr %10, align 4, !tbaa !10
  %47 = load ptr, ptr %11, align 8, !tbaa !18
  %48 = getelementptr inbounds nuw %struct.H5O_ainfo_t, ptr %47, i32 0, i32 1
  %49 = load i8, ptr %48, align 1, !tbaa !28, !range !23, !noundef !24
  %50 = trunc i8 %49 to i1
  %51 = select i1 %50, ptr @.str.16, ptr @.str.17
  %52 = call i32 (ptr, ptr, ...) @fprintf(ptr noundef %44, ptr noundef @.str.14, i32 noundef %45, ptr noundef @.str.12, i32 noundef %46, ptr noundef @.str.18, ptr noundef %51) #6
  %53 = load ptr, ptr %8, align 8, !tbaa !45
  %54 = load i32, ptr %9, align 4, !tbaa !10
  %55 = load i32, ptr %10, align 4, !tbaa !10
  %56 = load ptr, ptr %11, align 8, !tbaa !18
  %57 = getelementptr inbounds nuw %struct.H5O_ainfo_t, ptr %56, i32 0, i32 2
  %58 = load i32, ptr %57, align 4, !tbaa !30
  %59 = call i32 (ptr, ptr, ...) @fprintf(ptr noundef %53, ptr noundef @.str.19, i32 noundef %54, ptr noundef @.str.12, i32 noundef %55, ptr noundef @.str.20, i32 noundef %58) #6
  %60 = load ptr, ptr %8, align 8, !tbaa !45
  %61 = load i32, ptr %9, align 4, !tbaa !10
  %62 = load i32, ptr %10, align 4, !tbaa !10
  %63 = load ptr, ptr %11, align 8, !tbaa !18
  %64 = getelementptr inbounds nuw %struct.H5O_ainfo_t, ptr %63, i32 0, i32 5
  %65 = load i64, ptr %64, align 8, !tbaa !32
  %66 = call i32 (ptr, ptr, ...) @fprintf(ptr noundef %60, ptr noundef @.str.11, i32 noundef %61, ptr noundef @.str.12, i32 noundef %62, ptr noundef @.str.21, i64 noundef %65) #6
  %67 = load ptr, ptr %8, align 8, !tbaa !45
  %68 = load i32, ptr %9, align 4, !tbaa !10
  %69 = load i32, ptr %10, align 4, !tbaa !10
  %70 = load ptr, ptr %11, align 8, !tbaa !18
  %71 = getelementptr inbounds nuw %struct.H5O_ainfo_t, ptr %70, i32 0, i32 6
  %72 = load i64, ptr %71, align 8, !tbaa !33
  %73 = call i32 (ptr, ptr, ...) @fprintf(ptr noundef %67, ptr noundef @.str.11, i32 noundef %68, ptr noundef @.str.12, i32 noundef %69, ptr noundef @.str.22, i64 noundef %72) #6
  %74 = load ptr, ptr %8, align 8, !tbaa !45
  %75 = load i32, ptr %9, align 4, !tbaa !10
  %76 = load i32, ptr %10, align 4, !tbaa !10
  %77 = load ptr, ptr %11, align 8, !tbaa !18
  %78 = getelementptr inbounds nuw %struct.H5O_ainfo_t, ptr %77, i32 0, i32 3
  %79 = load i64, ptr %78, align 8, !tbaa !31
  %80 = call i32 (ptr, ptr, ...) @fprintf(ptr noundef %74, ptr noundef @.str.11, i32 noundef %75, ptr noundef @.str.12, i32 noundef %76, ptr noundef @.str.23, i64 noundef %79) #6
  br label %81

81:                                               ; preds = %27, %19
  call void @llvm.lifetime.end.p0(i64 8, ptr %11) #6
  ret i32 0
}