; Function Attrs: nofree nounwind uwtable
define internal noundef i32 @H5O__ainfo_debug(ptr readnone captures(none) %0, ptr noundef readonly captures(none) %1, ptr noundef captures(none) %2, i32 noundef %3, i32 noundef %4) #2 {
  %6 = load i8, ptr @H5O_init_g, align 1, !tbaa !3, !range !7, !noundef !8
  %7 = trunc nuw i8 %6 to i1
  %8 = load i8, ptr @H5_libterm_g, align 1, !range !7
  %9 = trunc nuw i8 %8 to i1
  %10 = xor i1 %9, true
  %11 = select i1 %7, i1 true, i1 %10
  br i1 %11, label %12, label %37, !prof !9

12:                                               ; preds = %5
  %13 = getelementptr inbounds nuw i8, ptr %1, i64 16
  %14 = load i64, ptr %13, align 8, !tbaa !20
  %15 = tail call i32 (ptr, ptr, ...) @fprintf(ptr noundef %2, ptr noundef nonnull @.str.11, i32 noundef %3, ptr noundef nonnull @.str.12, i32 noundef %4, ptr noundef nonnull @.str.13, i64 noundef %14) #7
  %16 = load i8, ptr %1, align 8, !tbaa !16, !range !7, !noundef !8
  %17 = trunc nuw i8 %16 to i1
  %18 = select i1 %17, ptr @.str.16, ptr @.str.17
  %19 = tail call i32 (ptr, ptr, ...) @fprintf(ptr noundef %2, ptr noundef nonnull @.str.14, i32 noundef %3, ptr noundef nonnull @.str.12, i32 noundef %4, ptr noundef nonnull @.str.15, ptr noundef nonnull %18) #7
  %20 = getelementptr inbounds nuw i8, ptr %1, i64 1
  %21 = load i8, ptr %20, align 1, !tbaa !19, !range !7, !noundef !8
  %22 = trunc nuw i8 %21 to i1
  %23 = select i1 %22, ptr @.str.16, ptr @.str.17
  %24 = tail call i32 (ptr, ptr, ...) @fprintf(ptr noundef %2, ptr noundef nonnull @.str.14, i32 noundef %3, ptr noundef nonnull @.str.12, i32 noundef %4, ptr noundef nonnull @.str.18, ptr noundef nonnull %23) #7
  %25 = getelementptr inbounds nuw i8, ptr %1, i64 4
  %26 = load i32, ptr %25, align 4, !tbaa !21
  %27 = tail call i32 (ptr, ptr, ...) @fprintf(ptr noundef %2, ptr noundef nonnull @.str.19, i32 noundef %3, ptr noundef nonnull @.str.12, i32 noundef %4, ptr noundef nonnull @.str.20, i32 noundef %26) #7
  %28 = getelementptr inbounds nuw i8, ptr %1, i64 24
  %29 = load i64, ptr %28, align 8, !tbaa !23
  %30 = tail call i32 (ptr, ptr, ...) @fprintf(ptr noundef %2, ptr noundef nonnull @.str.11, i32 noundef %3, ptr noundef nonnull @.str.12, i32 noundef %4, ptr noundef nonnull @.str.21, i64 noundef %29) #7
  %31 = getelementptr inbounds nuw i8, ptr %1, i64 32
  %32 = load i64, ptr %31, align 8, !tbaa !24
  %33 = tail call i32 (ptr, ptr, ...) @fprintf(ptr noundef %2, ptr noundef nonnull @.str.11, i32 noundef %3, ptr noundef nonnull @.str.12, i32 noundef %4, ptr noundef nonnull @.str.22, i64 noundef %32) #7
  %34 = getelementptr inbounds nuw i8, ptr %1, i64 8
  %35 = load i64, ptr %34, align 8, !tbaa !22
  %36 = tail call i32 (ptr, ptr, ...) @fprintf(ptr noundef %2, ptr noundef nonnull @.str.11, i32 noundef %3, ptr noundef nonnull @.str.12, i32 noundef %4, ptr noundef nonnull @.str.23, i64 noundef %35) #7
  br label %37

37:                                               ; preds = %12, %5
  ret i32 0
}